; Function Attrs: mustprogress uwtable
define hidden void @_ZN10sls_engine6mk_incEjRK3mpzRS0_(ptr noundef nonnull align 8 dereferenceable(1496) %0, i32 noundef %1, ptr noundef nonnull align 8 dereferenceable(16) %2, ptr noundef nonnull align 8 dereferenceable(16) %3) local_unnamed_addr #3 align 2 {
  %5 = alloca i32, align 4
  call void @llvm.lifetime.start.p0(i64 4, ptr nonnull %5) #25
  %6 = getelementptr inbounds nuw i8, ptr %0, i64 64
  %7 = getelementptr inbounds nuw i8, ptr %0, i64 712
  tail call void @_ZN11mpz_managerILb0EE3addERK3mpzS3_RS1_(ptr noundef nonnull align 8 dereferenceable(600) %6, ptr noundef nonnull align 8 dereferenceable(16) %2, ptr noundef nonnull align 8 dereferenceable(16) %7, ptr noundef nonnull align 8 dereferenceable(16) %3)
  %8 = call noundef zeroext i1 @_ZN11mpz_managerILb0EE15is_power_of_twoERK3mpzRj(ptr noundef nonnull align 8 dereferenceable(600) %6, ptr noundef nonnull align 8 dereferenceable(16) %3, ptr noundef nonnull align 4 dereferenceable(4) %5)
  %9 = load i32, ptr %5, align 4
  %10 = icmp eq i32 %9, %1
  %or.cond = select i1 %8, i1 %10, i1 false
  br i1 %or.cond, label %11, label %_ZN11mpz_managerILb0EE3setER3mpzRKS1_.exit

11:                                               ; preds = %4
  %12 = getelementptr inbounds nuw i8, ptr %0, i64 696
  %13 = getelementptr inbounds nuw i8, ptr %0, i64 700
  %14 = load i8, ptr %13, align 4
  %15 = and i8 %14, 1
  %16 = icmp eq i8 %15, 0
  br i1 %16, label %17, label %22

17:                                               ; preds = %11
  %18 = load i32, ptr %12, align 8, !tbaa !32
  store i32 %18, ptr %3, align 8, !tbaa !32
  %19 = getelementptr inbounds nuw i8, ptr %3, i64 4
  %20 = load i8, ptr %19, align 4
  %21 = and i8 %20, -2
  store i8 %21, ptr %19, align 4
  br label %_ZN11mpz_managerILb0EE3setER3mpzRKS1_.exit

22:                                               ; preds = %11
  call void @_ZN11mpz_managerILb0EE7big_setER3mpzRKS1_(ptr noundef nonnull align 8 dereferenceable(600) %6, ptr noundef nonnull align 8 dereferenceable(16) %3, ptr noundef nonnull align 8 dereferenceable(16) %12)
  br label %_ZN11mpz_managerILb0EE3setER3mpzRKS1_.exit

_ZN11mpz_managerILb0EE3setER3mpzRKS1_.exit:       ; preds = %22, %17, %4
  call void @llvm.lifetime.end.p0(i64 4, ptr nonnull %5) #25
  ret void
}